target datalayout = "e-m:e-p270:32:32-p271:32:32-p272:64:64-i64:64-i128:128-f80:128-n8:16:32:64-S128"
target triple = "x86_64-pc-linux-gnu"

%struct.AVHWDeviceContext = type { ptr, i32, ptr, ptr, ptr }
%struct.AVVAAPIDeviceContext = type { ptr, i32 }

@.str.31 = private unnamed_addr constant [49 x i8] c"Failed to initialise VAAPI connection: %d (%s).\0A\00", align 1
@.str.32 = private unnamed_addr constant [45 x i8] c"Initialised VAAPI connection: version %d.%d\0A\00", align 1

; Function Attrs: nounwind uwtable
define internal i32 @vaapi_device_connect(ptr noundef %0, ptr noundef %1) #0 {
  %3 = alloca i32, align 4
  %4 = alloca ptr, align 8
  %5 = alloca ptr, align 8
  %6 = alloca ptr, align 8
  %7 = alloca i32, align 4
  %8 = alloca i32, align 4
  %9 = alloca i32, align 4
  %10 = alloca i32, align 4
  store ptr %0, ptr %4, align 8, !tbaa !4
  store ptr %1, ptr %5, align 8, !tbaa !15
  call void @llvm.lifetime.start.p0(i64 8, ptr %6) #10
  %11 = load ptr, ptr %4, align 8, !tbaa !4
  %12 = getelementptr inbounds nuw %struct.AVHWDeviceContext, ptr %11, i32 0, i32 2
  %13 = load ptr, ptr %12, align 8, !tbaa !43
  store ptr %13, ptr %6, align 8, !tbaa !52
  call void @llvm.lifetime.start.p0(i64 4, ptr %7) #10
  call void @llvm.lifetime.start.p0(i64 4, ptr %8) #10
  call void @llvm.lifetime.start.p0(i64 4, ptr %9) #10
  %14 = load ptr, ptr %5, align 8, !tbaa !15
  %15 = load ptr, ptr %4, align 8, !tbaa !4
  %16 = call ptr @vaSetErrorCallback(ptr noundef %14, ptr noundef @vaapi_device_log_error, ptr noundef %15)
  %17 = load ptr, ptr %5, align 8, !tbaa !15
  %18 = load ptr, ptr %4, align 8, !tbaa !4
  %19 = call ptr @vaSetInfoCallback(ptr noundef %17, ptr noundef @vaapi_device_log_info, ptr noundef %18)
  %20 = load ptr, ptr %5, align 8, !tbaa !15
  %21 = load ptr, ptr %6, align 8, !tbaa !52
  %22 = getelementptr inbounds nuw %struct.AVVAAPIDeviceContext, ptr %21, i32 0, i32 0
  store ptr %20, ptr %22, align 8, !tbaa !56
  %23 = load ptr, ptr %5, align 8, !tbaa !15
  %24 = call i32 @vaInitialize(ptr noundef %23, ptr noundef %7, ptr noundef %8)
  store i32 %24, ptr %9, align 4, !tbaa !13
  %25 = load i32, ptr %9, align 4, !tbaa !13
  %26 = icmp ne i32 %25, 0
  br i1 %26, label %27, label %32

27:                                               ; preds = %2
  %28 = load ptr, ptr %4, align 8, !tbaa !4
  %29 = load i32, ptr %9, align 4, !tbaa !13
  %30 = load i32, ptr %9, align 4, !tbaa !13
  %31 = call ptr @vaErrorStr(i32 noundef %30)
  call void (ptr, i32, ptr, ...) @av_log(ptr noundef %28, i32 noundef 16, ptr noundef @.str.31, i32 noundef %29, ptr noundef %31)
  store i32 -5, ptr %3, align 4
  store i32 1, ptr %10, align 4
  br label %36

32:                                               ; preds = %2
  %33 = load ptr, ptr %4, align 8, !tbaa !4
  %34 = load i32, ptr %7, align 4, !tbaa !13
  %35 = load i32, ptr %8, align 4, !tbaa !13
  call void (ptr, i32, ptr, ...) @av_log(ptr noundef %33, i32 noundef 40, ptr noundef @.str.32, i32 noundef %34, i32 noundef %35)
  store i32 0, ptr %3, align 4
  store i32 1, ptr %10, align 4
  br label %36

36:                                               ; preds = %32, %27
  call void @llvm.lifetime.end.p0(i64 4, ptr %9) #10
  call void @llvm.lifetime.end.p0(i64 4, ptr %8) #10
  call void @llvm.lifetime.end.p0(i64 4, ptr %7) #10
  call void @llvm.lifetime.end.p0(i64 8, ptr %6) #10
  %37 = load i32, ptr %3, align 4
  ret i32 %37
}