; Function Attrs: nounwind uwtable
define internal fastcc range(i32 -5, 1) i32 @vaapi_device_connect(ptr noundef %0, ptr noundef nonnull %1) unnamed_addr #0 {
  %3 = alloca i32, align 4
  %4 = alloca i32, align 4
  %5 = getelementptr inbounds nuw i8, ptr %0, i64 16
  %6 = load ptr, ptr %5, align 8, !tbaa !31
  call void @llvm.lifetime.start.p0(i64 4, ptr nonnull %3) #11
  call void @llvm.lifetime.start.p0(i64 4, ptr nonnull %4) #11
  %7 = tail call ptr @vaSetErrorCallback(ptr noundef nonnull %1, ptr noundef nonnull @vaapi_device_log_error, ptr noundef %0) #11
  %8 = tail call ptr @vaSetInfoCallback(ptr noundef nonnull %1, ptr noundef nonnull @vaapi_device_log_info, ptr noundef %0) #11
  store ptr %1, ptr %6, align 8, !tbaa !34
  %9 = call i32 @vaInitialize(ptr noundef nonnull %1, ptr noundef nonnull %3, ptr noundef nonnull %4) #11
  %.not = icmp eq i32 %9, 0
  br i1 %.not, label %12, label %10

10:                                               ; preds = %2
  %11 = call ptr @vaErrorStr(i32 noundef %9) #11
  call void (ptr, i32, ptr, ...) @av_log(ptr noundef nonnull %0, i32 noundef 16, ptr noundef nonnull @.str.31, i32 noundef %9, ptr noundef %11) #11
  br label %15

12:                                               ; preds = %2
  %13 = load i32, ptr %3, align 4, !tbaa !26
  %14 = load i32, ptr %4, align 4, !tbaa !26
  call void (ptr, i32, ptr, ...) @av_log(ptr noundef nonnull %0, i32 noundef 40, ptr noundef nonnull @.str.32, i32 noundef %13, i32 noundef %14) #11
  br label %15

15:                                               ; preds = %12, %10
  %.0 = phi i32 [ -5, %10 ], [ 0, %12 ]
  call void @llvm.lifetime.end.p0(i64 4, ptr nonnull %4) #11
  call void @llvm.lifetime.end.p0(i64 4, ptr nonnull %3) #11
  ret i32 %.0
}